ARM GAS  C:\Users\dedla\AppData\Local\Temp\cc1buK3G.s 			page 1


   1              		.cpu cortex-m4
   2              		.arch armv7e-m
   3              		.fpu fpv4-sp-d16
   4              		.eabi_attribute 27, 1
   5              		.eabi_attribute 28, 1
   6              		.eabi_attribute 20, 1
   7              		.eabi_attribute 21, 1
   8              		.eabi_attribute 23, 3
   9              		.eabi_attribute 24, 1
  10              		.eabi_attribute 25, 1
  11              		.eabi_attribute 26, 1
  12              		.eabi_attribute 30, 1
  13              		.eabi_attribute 34, 1
  14              		.eabi_attribute 18, 4
  15              		.file	"init.c"
  16              		.text
  17              	.Ltext0:
  18              		.cfi_sections	.debug_frame
  19              		.file 1 "Core/Src/init.c"
  20              		.section	.text.GPIO_Ini,"ax",%progbits
  21              		.align	1
  22              		.global	GPIO_Ini
  23              		.syntax unified
  24              		.thumb
  25              		.thumb_func
  27              	GPIO_Ini:
  28              	.LFB130:
   1:Core/Src/init.c **** #include "init.h"
   2:Core/Src/init.c **** 
   3:Core/Src/init.c **** void GPIO_Ini(void){
  29              		.loc 1 3 20 view -0
  30              		.cfi_startproc
  31              		@ args = 0, pretend = 0, frame = 0
  32              		@ frame_needed = 0, uses_anonymous_args = 0
  33 0000 F8B5     		push	{r3, r4, r5, r6, r7, lr}
  34              	.LCFI0:
  35              		.cfi_def_cfa_offset 24
  36              		.cfi_offset 3, -24
  37              		.cfi_offset 4, -20
  38              		.cfi_offset 5, -16
  39              		.cfi_offset 6, -12
  40              		.cfi_offset 7, -8
  41              		.cfi_offset 14, -4
   4:Core/Src/init.c ****     SET_BIT(RCC->AHB1ENR, RCC_AHB1ENR_GPIOBEN | RCC_AHB1ENR_GPIOCEN | RCC_AHB1ENR_GPIODEN); 
  42              		.loc 1 4 5 view .LVU1
  43              		.loc 1 4 16 is_stmt 0 view .LVU2
  44 0002 1E4B     		ldr	r3, .L3
  45 0004 186B     		ldr	r0, [r3, #48]
  46              		.loc 1 4 5 view .LVU3
  47 0006 0E21     		movs	r1, #14
  48 0008 FFF7FEFF 		bl	SET_BIT
  49              	.LVL0:
   5:Core/Src/init.c **** 
   6:Core/Src/init.c ****     SET_BIT(GPIOB->MODER, GPIO_MODER_MODE0_0);
  50              		.loc 1 6 5 is_stmt 1 view .LVU4
  51              		.loc 1 6 18 is_stmt 0 view .LVU5
  52 000c 1C4C     		ldr	r4, .L3+4
ARM GAS  C:\Users\dedla\AppData\Local\Temp\cc1buK3G.s 			page 2


  53 000e 2068     		ldr	r0, [r4]
  54              		.loc 1 6 5 view .LVU6
  55 0010 0121     		movs	r1, #1
  56 0012 FFF7FEFF 		bl	SET_BIT
  57              	.LVL1:
   7:Core/Src/init.c ****     SET_BIT(GPIOB->MODER, GPIO_MODER_MODE7_0);
  58              		.loc 1 7 5 is_stmt 1 view .LVU7
  59              		.loc 1 7 18 is_stmt 0 view .LVU8
  60 0016 2068     		ldr	r0, [r4]
  61              		.loc 1 7 5 view .LVU9
  62 0018 4FF48041 		mov	r1, #16384
  63 001c FFF7FEFF 		bl	SET_BIT
  64              	.LVL2:
   8:Core/Src/init.c ****     SET_BIT(GPIOB->MODER, GPIO_MODER_MODE14_0);
  65              		.loc 1 8 5 is_stmt 1 view .LVU10
  66              		.loc 1 8 18 is_stmt 0 view .LVU11
  67 0020 2068     		ldr	r0, [r4]
  68              		.loc 1 8 5 view .LVU12
  69 0022 4FF08051 		mov	r1, #268435456
  70 0026 FFF7FEFF 		bl	SET_BIT
  71              	.LVL3:
   9:Core/Src/init.c ****     SET_BIT(GPIOC->MODER, GPIO_MODER_MODE6);
  72              		.loc 1 9 5 is_stmt 1 view .LVU13
  73              		.loc 1 9 18 is_stmt 0 view .LVU14
  74 002a 164D     		ldr	r5, .L3+8
  75 002c 2868     		ldr	r0, [r5]
  76              		.loc 1 9 5 view .LVU15
  77 002e 4FF44051 		mov	r1, #12288
  78 0032 FFF7FEFF 		bl	SET_BIT
  79              	.LVL4:
  10:Core/Src/init.c ****     SET_BIT(GPIOC->MODER, GPIO_MODER_MODE7);
  80              		.loc 1 10 5 is_stmt 1 view .LVU16
  81              		.loc 1 10 18 is_stmt 0 view .LVU17
  82 0036 2868     		ldr	r0, [r5]
  83              		.loc 1 10 5 view .LVU18
  84 0038 4FF44041 		mov	r1, #49152
  85 003c FFF7FEFF 		bl	SET_BIT
  86              	.LVL5:
  11:Core/Src/init.c ****     
  12:Core/Src/init.c **** 
  13:Core/Src/init.c ****     CLEAR_BIT(GPIOB->OTYPER, GPIO_OTYPER_OT_0 | GPIO_OTYPER_OT_7 | GPIO_OTYPER_OT_14 | GPIO_OTYPER_
  87              		.loc 1 13 5 is_stmt 1 view .LVU19
  88              		.loc 1 13 20 is_stmt 0 view .LVU20
  89 0040 6068     		ldr	r0, [r4, #4]
  90              		.loc 1 13 5 view .LVU21
  91 0042 46F28101 		movw	r1, #24705
  92 0046 FFF7FEFF 		bl	CLEAR_BIT
  93              	.LVL6:
  14:Core/Src/init.c ****     CLEAR_BIT(GPIOC->OTYPER, GPIO_OTYPER_OT_12 | GPIO_OTYPER_OT_6 | GPIO_OTYPER_OT_7); 
  94              		.loc 1 14 5 is_stmt 1 view .LVU22
  95              		.loc 1 14 20 is_stmt 0 view .LVU23
  96 004a 6868     		ldr	r0, [r5, #4]
  97              		.loc 1 14 5 view .LVU24
  98 004c 4FF48651 		mov	r1, #4288
  99 0050 FFF7FEFF 		bl	CLEAR_BIT
 100              	.LVL7:
  15:Core/Src/init.c ****     SET_BIT(GPIOB->OSPEEDR, GPIO_OSPEEDER_OSPEEDR0_0 | GPIO_OSPEEDER_OSPEEDR7_0 | GPIO_OSPEEDER_OSP
ARM GAS  C:\Users\dedla\AppData\Local\Temp\cc1buK3G.s 			page 3


 101              		.loc 1 15 5 is_stmt 1 view .LVU25
 102              		.loc 1 15 18 is_stmt 0 view .LVU26
 103 0054 A068     		ldr	r0, [r4, #8]
 104              		.loc 1 15 5 view .LVU27
 105 0056 0C4F     		ldr	r7, .L3+12
 106 0058 3946     		mov	r1, r7
 107 005a FFF7FEFF 		bl	SET_BIT
 108              	.LVL8:
  16:Core/Src/init.c ****     SET_BIT(GPIOC->OSPEEDR, GPIO_OSPEEDER_OSPEEDR12_0 | GPIO_OSPEEDER_OSPEEDR6_0 | GPIO_OSPEEDER_OS
 109              		.loc 1 16 5 is_stmt 1 view .LVU28
 110              		.loc 1 16 18 is_stmt 0 view .LVU29
 111 005e A868     		ldr	r0, [r5, #8]
 112              		.loc 1 16 5 view .LVU30
 113 0060 0A4E     		ldr	r6, .L3+16
 114 0062 3146     		mov	r1, r6
 115 0064 FFF7FEFF 		bl	SET_BIT
 116              	.LVL9:
  17:Core/Src/init.c ****     CLEAR_BIT(GPIOB->PUPDR, GPIO_PUPDR_PUPDR0_0 | GPIO_PUPDR_PUPDR7_0 | GPIO_PUPDR_PUPDR14_0);
 117              		.loc 1 17 5 is_stmt 1 view .LVU31
 118              		.loc 1 17 20 is_stmt 0 view .LVU32
 119 0068 E068     		ldr	r0, [r4, #12]
 120              		.loc 1 17 5 view .LVU33
 121 006a 3946     		mov	r1, r7
 122 006c FFF7FEFF 		bl	CLEAR_BIT
 123              	.LVL10:
  18:Core/Src/init.c ****     CLEAR_BIT(GPIOC->PUPDR, GPIO_PUPDR_PUPDR12_0 | GPIO_PUPDR_PUPDR6_0 | GPIO_PUPDR_PUPDR7_0);
 124              		.loc 1 18 5 is_stmt 1 view .LVU34
 125              		.loc 1 18 20 is_stmt 0 view .LVU35
 126 0070 E868     		ldr	r0, [r5, #12]
 127              		.loc 1 18 5 view .LVU36
 128 0072 3146     		mov	r1, r6
 129 0074 FFF7FEFF 		bl	CLEAR_BIT
 130              	.LVL11:
  19:Core/Src/init.c **** }...
 131              		.loc 1 19 1 view .LVU37
 132 0078 F8BD     		pop	{r3, r4, r5, r6, r7, pc}
 133              	.L4:
 134 007a 00BF     		.align	2
 135              	.L3:
 136 007c 00380240 		.word	1073887232
 137 0080 00040240 		.word	1073873920
 138 0084 00080240 		.word	1073874944
 139 0088 01400010 		.word	268451841
 140 008c 00500001 		.word	16797696
 141              		.cfi_endproc
 142              	.LFE130:
 144              		.text
 145              	.Letext0:
 146              		.file 2 "D:/Microcontroller/xpack-arm-none-eabi-gcc-13.2.1-1.1/arm-none-eabi/include/machine/_defa
 147              		.file 3 "D:/Microcontroller/xpack-arm-none-eabi-gcc-13.2.1-1.1/arm-none-eabi/include/sys/_stdint.h
 148              		.file 4 "C:/Users/dedla/Documents/Labstm/Laboratory_Practice/CMSIS/Devices/Inc/stm32f429xx.h"
ARM GAS  C:\Users\dedla\AppData\Local\Temp\cc1buK3G.s 			page 4

